; Function Attrs: mustprogress uwtable
define void @_ZN8facebook5velox6common3hll8DenseHll9mergeWithERKS3_(ptr noundef nonnull align 8 captures(none) dereferenceable(112) %this, ptr noundef nonnull readonly align 8 captures(none) dereferenceable(112) %other) local_unnamed_addr #0 align 2 {
entry:
  %0 = load i8, ptr %this, align 8
  %1 = load i8, ptr %other, align 8
  %cmp.not = icmp eq i8 %0, %1
  br i1 %cmp.not, label %if.end, label %if.then

if.then:                                          ; preds = %entry
  tail call void @llvm.trap()
  unreachable

if.end:                                           ; preds = %entry
  %baseline_ = getelementptr inbounds nuw i8, ptr %other, i64 1
  %2 = load i8, ptr %baseline_, align 1
  %add.ptr.i = getelementptr inbounds nuw i8, ptr %other, i64 16
  %3 = load ptr, ptr %add.ptr.i, align 8
  %overflows_ = getelementptr inbounds nuw i8, ptr %other, i64 40
  %4 = load i16, ptr %overflows_, align 8
  %add.ptr.i6 = getelementptr inbounds nuw i8, ptr %other, i64 56
  %5 = load ptr, ptr %add.ptr.i6, align 8
  %add.ptr.i7 = getelementptr inbounds nuw i8, ptr %other, i64 88
  %6 = load ptr, ptr %add.ptr.i7, align 8
  tail call void @_ZN8facebook5velox6common3hll8DenseHll9mergeWithEaPKasPKtS5_(ptr noundef nonnull align 8 dereferenceable(112) %this, i8 noundef signext %2, ptr noundef %3, i16 noundef signext %4, ptr noundef %5, ptr noundef %6)
  ret void
}